; Function Attrs: mustprogress nofree norecurse nosync nounwind willreturn memory(write, argmem: readwrite, inaccessiblemem: none) uwtable
define void @Fxu_ListDoubleAddPairFirst(ptr noundef captures(none) %0, ptr noundef %1) local_unnamed_addr #0 {
  %3 = getelementptr inbounds nuw i8, ptr %0, i64 16
  %4 = load ptr, ptr %3, align 8, !tbaa !64
  %5 = icmp eq ptr %4, null
  br i1 %5, label %6, label %8

6:                                                ; preds = %2
  %7 = getelementptr inbounds nuw i8, ptr %0, i64 24
  store ptr %1, ptr %7, align 8, !tbaa !65
  br label %10

8:                                                ; preds = %2
  %9 = getelementptr inbounds nuw i8, ptr %1, i64 48
  store ptr null, ptr %9, align 8, !tbaa !68
  br label %10

10:                                               ; preds = %8, %6
  %.sink17 = phi ptr [ %4, %8 ], [ %1, %6 ]
  %.sink = phi ptr [ %1, %8 ], [ null, %6 ]
  %11 = getelementptr inbounds nuw i8, ptr %.sink17, i64 48
  store ptr %.sink, ptr %11, align 8, !tbaa !68
  store ptr %1, ptr %3, align 8, !tbaa !64
  %12 = getelementptr inbounds nuw i8, ptr %1, i64 56
  store ptr %4, ptr %12, align 8, !tbaa !66
  %13 = getelementptr inbounds nuw i8, ptr %0, i64 32
  %14 = load i32, ptr %13, align 8, !tbaa !69
  %15 = add nsw i32 %14, 1
  store i32 %15, ptr %13, align 8, !tbaa !69
  ret void
}